target datalayout = "e-m:e-p270:32:32-p271:32:32-p272:64:64-i64:64-i128:128-f80:128-n8:16:32:64-S128"
target triple = "x86_64-pc-linux-gnu"

%struct.AddressSpace = type { %struct.rcu_head, ptr, ptr, ptr, i32, i32, ptr, %union.anon, %union.anon.0, i64, i64, %struct.QemuMutex, %struct.anon }
%struct.rcu_head = type { ptr, ptr }
%union.anon = type { %struct.QTailQLink }
%struct.QTailQLink = type { ptr, ptr }
%union.anon.0 = type { %struct.QTailQLink }
%struct.QemuMutex = type { %union.pthread_mutex_t, i8 }
%union.pthread_mutex_t = type { %struct.__pthread_mutex_s }
%struct.__pthread_mutex_s = type { i32, i32, i32, i32, i32, i16, i16, %struct.__pthread_internal_list }
%struct.__pthread_internal_list = type { ptr, ptr }
%struct.anon = type { ptr }
%struct.VirtIOPCIProxy = type { %struct.PCIDevice, %struct.MemoryRegion, %union.anon.7, %struct.MemoryRegion, %struct.MemoryRegion, %struct.AddressSpace, %struct.AddressSpace, i32, i32, i32, i32, i32, i32, i8, i8, i32, i16, i32, i32, i32, i32, [2 x i32], [1024 x %struct.VirtIOPCIQueue], ptr, i32, %struct.VirtioBusState }
%struct.PCIDevice = type { %struct.DeviceState, i8, i8, ptr, ptr, ptr, ptr, ptr, i32, %struct.PCIReqIDCache, [64 x i8], [7 x %struct.PCIIORegion], %struct.AddressSpace, %struct.MemoryRegion, %struct.MemoryRegion, ptr, ptr, [3 x ptr], i8, i8, i32, i8, i32, ptr, ptr, ptr, ptr, ptr, ptr, %struct.MemoryRegion, %struct.MemoryRegion, %struct.MemoryRegion, ptr, i8, i32, i8, %struct.PCIExpressDevice, ptr, ptr, i32, i8, %struct.MemoryRegion, i32, ptr, ptr, ptr, ptr, i16, %struct.DOECap, ptr, i32, i32 }
%struct.DeviceState = type { %struct.Object, ptr, ptr, i8, i8, i64, i32, i8, ptr, %struct.NamedGPIOListHead, %struct.NamedClockListHead, %struct.BusStateHead, i32, i32, i32, %struct.ResettableState, ptr, %struct.MemReentrancyGuard }
%struct.Object = type { ptr, ptr, ptr, i32, ptr }
%struct.NamedGPIOListHead = type { ptr }
%struct.NamedClockListHead = type { ptr }
%struct.BusStateHead = type { ptr }
%struct.ResettableState = type { i32, i8, i8 }
%struct.MemReentrancyGuard = type { i8 }
%struct.PCIReqIDCache = type { ptr, i32 }
%struct.PCIIORegion = type { i64, i64, i8, ptr, ptr }
%struct.PCIExpressDevice = type { i8, i8, i8, i16, %struct.PCIEAERLog, i16, i16, i16, %struct.PCIESriovPF, %struct.PCIESriovVF }
%struct.PCIEAERLog = type { i16, i16, ptr }
%struct.PCIESriovPF = type { i16, [7 x i8], ptr, ptr }
%struct.PCIESriovVF = type { ptr, i16 }
%struct.DOECap = type { ptr, i16, %struct.anon.4, %struct.anon.5, %struct.anon.6, ptr, ptr, i32, i32, i32, ptr, i16, i32 }
%struct.anon.4 = type { i8, i16 }
%struct.anon.5 = type { i8, i8, i8 }
%struct.anon.6 = type { i8, i8, i8, i8 }
%union.anon.7 = type { %struct.anon.8 }
%struct.anon.8 = type { %struct.VirtIOPCIRegion, %struct.VirtIOPCIRegion, %struct.VirtIOPCIRegion, %struct.VirtIOPCIRegion, %struct.VirtIOPCIRegion }
%struct.VirtIOPCIRegion = type { %struct.MemoryRegion, i32, i32, i32 }
%struct.MemoryRegion = type { %struct.Object, i8, i8, i8, i8, i8, i8, i8, i8, i8, i8, ptr, ptr, ptr, ptr, ptr, ptr, i32, i128, i64, ptr, i64, i8, i8, i8, i8, ptr, i64, i32, %union.anon.1, %union.anon.2, %union.anon.3, ptr, i32, ptr, ptr, i8 }
%union.anon.1 = type { %struct.QTailQLink }
%union.anon.2 = type { %struct.QTailQLink }
%union.anon.3 = type { %struct.QTailQLink }
%struct.VirtIOPCIQueue = type { i16, i8, i8, [2 x i32], [2 x i32], [2 x i32] }
%struct.VirtioBusState = type { %struct.BusState, i8, i32 }
%struct.BusState = type { %struct.Object, ptr, ptr, ptr, i32, i8, i8, i32, %union.BusChildHead, %struct.BusStateEntry, %struct.ResettableState }
%union.BusChildHead = type { %struct.QTailQLink }
%struct.BusStateEntry = type { ptr, ptr }
%struct.ObjectClass = type { ptr, ptr, [4 x ptr], [4 x ptr], ptr, ptr }
%struct.VirtIODevice = type { %struct.DeviceState, ptr, i8, i8, i16, i64, i64, i64, i64, ptr, i16, i32, i32, ptr, %struct.MemoryListener, i16, i8, i8, i8, i8, i8, i8, i8, i8, i8, ptr, ptr, i8, i8, ptr, ptr, %union.anon.12, %struct.EventNotifier, i8 }
%struct.MemoryListener = type { ptr, ptr, ptr, ptr, ptr, ptr, ptr, ptr, ptr, ptr, ptr, ptr, ptr, ptr, ptr, ptr, ptr, i32, ptr, ptr, %union.anon.10, %union.anon.11 }
%union.anon.10 = type { %struct.QTailQLink }
%union.anon.11 = type { %struct.QTailQLink }
%union.anon.12 = type { %struct.QTailQLink }
%struct.EventNotifier = type { i32, i32, i8 }
%struct.VirtioDeviceClass = type { %struct.DeviceClass, ptr, ptr, ptr, ptr, ptr, ptr, ptr, ptr, ptr, ptr, ptr, ptr, i64, ptr, ptr, ptr, ptr, ptr, ptr, ptr, ptr, ptr, ptr, ptr, ptr }
%struct.DeviceClass = type { %struct.ObjectClass, [1 x i64], ptr, ptr, ptr, i16, i8, i8, ptr, ptr, ptr, ptr, ptr, ptr }
%struct.BusChild = type { %struct.rcu_head, ptr, i32, %union.anon.13 }
%union.anon.13 = type { %struct.QTailQLink }
%struct.MSIMessage = type { i64, i32 }
%struct.VirtIOIRQFD = type { %struct.MSIMessage, i32, i32 }

@.str.5 = private unnamed_addr constant [31 x i8] c"../qemu/hw/virtio/virtio-pci.c\00", align 1
@.str.42 = private unnamed_addr constant [14 x i8] c"virtio-device\00", align 1
@.str.43 = private unnamed_addr constant [105 x i8] c"/home/dtcxzyw/WorkSpace/Projects/compilers/llvm-opt-benchmark/bench/qemu/qemu/include/hw/virtio/virtio.h\00", align 1
@__func__.VIRTIO_DEVICE_GET_CLASS = private unnamed_addr constant [24 x i8] c"VIRTIO_DEVICE_GET_CLASS\00", align 1
@kvm_state = external global ptr, align 8
@.str.44 = private unnamed_addr constant [9 x i8] c"ret == 0\00", align 1
@__PRETTY_FUNCTION__.kvm_virtio_pci_irqfd_release = private unnamed_addr constant [83 x i8] c"void kvm_virtio_pci_irqfd_release(VirtIOPCIProxy *, EventNotifier *, unsigned int)\00", align 1

; Function Attrs: nounwind sspstrong uwtable
define internal void @kvm_virtio_pci_vq_vector_release(ptr noundef %0, i32 noundef %1) #0 {
  %3 = alloca ptr, align 8
  %4 = alloca i32, align 4
  %5 = alloca ptr, align 8
  store ptr %0, ptr %3, align 8
  store i32 %1, ptr %4, align 4
  call void @llvm.lifetime.start.p0(i64 8, ptr %5) #13
  %6 = load ptr, ptr %3, align 8
  %7 = getelementptr inbounds nuw %struct.VirtIOPCIProxy, ptr %6, i32 0, i32 23
  %8 = load ptr, ptr %7, align 16
  %9 = load i32, ptr %4, align 4
  %10 = zext i32 %9 to i64
  %11 = getelementptr inbounds nuw %struct.VirtIOIRQFD, ptr %8, i64 %10
  store ptr %11, ptr %5, align 8
  %12 = load ptr, ptr %5, align 8
  %13 = getelementptr inbounds nuw %struct.VirtIOIRQFD, ptr %12, i32 0, i32 2
  %14 = load i32, ptr %13, align 4
  %15 = add i32 %14, -1
  store i32 %15, ptr %13, align 4
  %16 = icmp eq i32 %15, 0
  br i1 %16, label %17, label %22

17:                                               ; preds = %2
  %18 = load ptr, ptr @kvm_state, align 8
  %19 = load ptr, ptr %5, align 8
  %20 = getelementptr inbounds nuw %struct.VirtIOIRQFD, ptr %19, i32 0, i32 1
  %21 = load i32, ptr %20, align 8
  call void @kvm_irqchip_release_virq(ptr noundef %18, i32 noundef %21)
  br label %22

22:                                               ; preds = %17, %2
  call void @llvm.lifetime.end.p0(i64 8, ptr %5) #13
  ret void
}

; Function Attrs: nounwind sspstrong uwtable
define internal void @kvm_virtio_pci_irqfd_release(ptr noundef %0, ptr noundef %1, i32 noundef %2) #0 {
  %4 = alloca ptr, align 8
  %5 = alloca ptr, align 8
  %6 = alloca i32, align 4
  %7 = alloca ptr, align 8
  %8 = alloca i32, align 4
  store ptr %0, ptr %4, align 8
  store ptr %1, ptr %5, align 8
  store i32 %2, ptr %6, align 4
  call void @llvm.lifetime.start.p0(i64 8, ptr %7) #13
  %9 = load ptr, ptr %4, align 8
  %10 = getelementptr inbounds nuw %struct.VirtIOPCIProxy, ptr %9, i32 0, i32 23
  %11 = load ptr, ptr %10, align 16
  %12 = load i32, ptr %6, align 4
  %13 = zext i32 %12 to i64
  %14 = getelementptr inbounds nuw %struct.VirtIOIRQFD, ptr %11, i64 %13
  store ptr %14, ptr %7, align 8
  call void @llvm.lifetime.start.p0(i64 4, ptr %8) #13
  store i32 0, ptr %8, align 4, !annotation !4
  %15 = load ptr, ptr @kvm_state, align 8
  %16 = load ptr, ptr %5, align 8
  %17 = load ptr, ptr %7, align 8
  %18 = getelementptr inbounds nuw %struct.VirtIOIRQFD, ptr %17, i32 0, i32 1
  %19 = load i32, ptr %18, align 8
  %20 = call i32 @kvm_irqchip_remove_irqfd_notifier_gsi(ptr noundef %15, ptr noundef %16, i32 noundef %19)
  store i32 %20, ptr %8, align 4
  %21 = load i32, ptr %8, align 4
  %22 = icmp eq i32 %21, 0
  br i1 %22, label %23, label %24

23:                                               ; preds = %3
  br label %25

24:                                               ; preds = %3
  call void @__assert_fail(ptr noundef @.str.44, ptr noundef @.str.5, i32 noundef 865, ptr noundef @__PRETTY_FUNCTION__.kvm_virtio_pci_irqfd_release) #14
  unreachable

25:                                               ; preds = %23
  call void @llvm.lifetime.end.p0(i64 4, ptr %8) #13
  call void @llvm.lifetime.end.p0(i64 8, ptr %7) #13
  ret void
}

; Function Attrs: nounwind sspstrong uwtable
define internal i32 @virtio_pci_get_notifier(ptr noundef %0, i32 noundef %1, ptr noundef %2, ptr noundef %3) #0 {
  %5 = alloca i32, align 4
  %6 = alloca ptr, align 8
  %7 = alloca i32, align 4
  %8 = alloca ptr, align 8
  %9 = alloca ptr, align 8
  %10 = alloca ptr, align 8
  %11 = alloca ptr, align 8
  %12 = alloca i32, align 4
  store ptr %0, ptr %6, align 8
  store i32 %1, ptr %7, align 4
  store ptr %2, ptr %8, align 8
  store ptr %3, ptr %9, align 8
  call void @llvm.lifetime.start.p0(i64 8, ptr %10) #13
  %13 = load ptr, ptr %6, align 8
  %14 = getelementptr inbounds nuw %struct.VirtIOPCIProxy, ptr %13, i32 0, i32 25
  %15 = call ptr @virtio_bus_get_device(ptr noundef %14)
  store ptr %15, ptr %10, align 8
  call void @llvm.lifetime.start.p0(i64 8, ptr %11) #13
  store ptr null, ptr %11, align 8, !annotation !4
  %16 = load ptr, ptr %6, align 8
  %17 = getelementptr inbounds nuw %struct.VirtIOPCIProxy, ptr %16, i32 0, i32 23
  %18 = load ptr, ptr %17, align 16
  %19 = icmp ne ptr %18, null
  br i1 %19, label %28, label %20

20:                                               ; preds = %4
  %21 = load ptr, ptr %10, align 8
  %22 = getelementptr inbounds nuw %struct.VirtIODevice, ptr %21, i32 0, i32 2
  %23 = load i8, ptr %22, align 8
  %24 = zext i8 %23 to i32
  %25 = and i32 %24, 4
  %26 = icmp ne i32 %25, 0
  br i1 %26, label %27, label %28

27:                                               ; preds = %20
  store i32 -1, ptr %5, align 4
  store i32 1, ptr %12, align 4
  br label %59

28:                                               ; preds = %20, %4
  %29 = load i32, ptr %7, align 4
  %30 = icmp eq i32 %29, -1
  br i1 %30, label %31, label %40

31:                                               ; preds = %28
  %32 = load ptr, ptr %10, align 8
  %33 = call ptr @virtio_config_get_guest_notifier(ptr noundef %32)
  %34 = load ptr, ptr %8, align 8
  store ptr %33, ptr %34, align 8
  %35 = load ptr, ptr %10, align 8
  %36 = getelementptr inbounds nuw %struct.VirtIODevice, ptr %35, i32 0, i32 10
  %37 = load i16, ptr %36, align 8
  %38 = zext i16 %37 to i32
  %39 = load ptr, ptr %9, align 8
  store i32 %38, ptr %39, align 4
  br label %58

40:                                               ; preds = %28
  %41 = load ptr, ptr %10, align 8
  %42 = load i32, ptr %7, align 4
  %43 = call i32 @virtio_queue_get_num(ptr noundef %41, i32 noundef %42)
  %44 = icmp ne i32 %43, 0
  br i1 %44, label %46, label %45

45:                                               ; preds = %40
  store i32 -1, ptr %5, align 4
  store i32 1, ptr %12, align 4
  br label %59

46:                                               ; preds = %40
  %47 = load ptr, ptr %10, align 8
  %48 = load i32, ptr %7, align 4
  %49 = call zeroext i16 @virtio_queue_vector(ptr noundef %47, i32 noundef %48)
  %50 = zext i16 %49 to i32
  %51 = load ptr, ptr %9, align 8
  store i32 %50, ptr %51, align 4
  %52 = load ptr, ptr %10, align 8
  %53 = load i32, ptr %7, align 4
  %54 = call ptr @virtio_get_queue(ptr noundef %52, i32 noundef %53)
  store ptr %54, ptr %11, align 8
  %55 = load ptr, ptr %11, align 8
  %56 = call ptr @virtio_queue_get_guest_notifier(ptr noundef %55)
  %57 = load ptr, ptr %8, align 8
  store ptr %56, ptr %57, align 8
  br label %58

58:                                               ; preds = %46, %31
  store i32 0, ptr %5, align 4
  store i32 1, ptr %12, align 4
  br label %59

59:                                               ; preds = %58, %45, %27
  call void @llvm.lifetime.end.p0(i64 8, ptr %11) #13
  call void @llvm.lifetime.end.p0(i64 8, ptr %10) #13
  %60 = load i32, ptr %5, align 4
  ret i32 %60
}

; Function Attrs: inlinehint nounwind sspstrong uwtable
define internal ptr @VIRTIO_DEVICE_GET_CLASS(ptr noundef %0) #4 {
  %2 = alloca ptr, align 8
  store ptr %0, ptr %2, align 8
  %3 = load ptr, ptr %2, align 8
  %4 = call ptr @object_get_class(ptr noundef %3)
  %5 = call ptr @object_class_dynamic_cast_assert(ptr noundef %4, ptr noundef @.str.42, ptr noundef @.str.43, i32 noundef 88, ptr noundef @__func__.VIRTIO_DEVICE_GET_CLASS)
  ret ptr %5
}

; Function Attrs: inlinehint nounwind sspstrong uwtable
define internal ptr @virtio_bus_get_device(ptr noundef %0) #4 {
  %2 = alloca ptr, align 8
  %3 = alloca ptr, align 8
  %4 = alloca ptr, align 8
  %5 = alloca ptr, align 8
  store ptr %0, ptr %2, align 8
  call void @llvm.lifetime.start.p0(i64 8, ptr %3) #13
  %6 = load ptr, ptr %2, align 8
  %7 = getelementptr inbounds nuw %struct.VirtioBusState, ptr %6, i32 0, i32 0
  store ptr %7, ptr %3, align 8
  call void @llvm.lifetime.start.p0(i64 8, ptr %4) #13
  %8 = load ptr, ptr %3, align 8
  %9 = getelementptr inbounds nuw %struct.BusState, ptr %8, i32 0, i32 8
  %10 = load ptr, ptr %9, align 8
  store ptr %10, ptr %4, align 8
  call void @llvm.lifetime.start.p0(i64 8, ptr %5) #13
  %11 = load ptr, ptr %4, align 8
  %12 = icmp ne ptr %11, null
  br i1 %12, label %13, label %17

13:                                               ; preds = %1
  %14 = load ptr, ptr %4, align 8
  %15 = getelementptr inbounds nuw %struct.BusChild, ptr %14, i32 0, i32 1
  %16 = load ptr, ptr %15, align 8
  br label %18

17:                                               ; preds = %1
  br label %18

18:                                               ; preds = %17, %13
  %19 = phi ptr [ %16, %13 ], [ null, %17 ]
  store ptr %19, ptr %5, align 8
  %20 = load ptr, ptr %5, align 8
  call void @llvm.lifetime.end.p0(i64 8, ptr %5) #13
  call void @llvm.lifetime.end.p0(i64 8, ptr %4) #13
  call void @llvm.lifetime.end.p0(i64 8, ptr %3) #13
  ret ptr %20
}

; Function Attrs: nounwind sspstrong uwtable
define internal void @kvm_virtio_pci_vector_release_one(ptr noundef %0, i32 noundef %1) #0 {
  %3 = alloca ptr, align 8
  %4 = alloca i32, align 4
  %5 = alloca ptr, align 8
  %6 = alloca i32, align 4
  %7 = alloca ptr, align 8
  %8 = alloca i32, align 4
  %9 = alloca ptr, align 8
  %10 = alloca ptr, align 8
  %11 = alloca i32, align 4
  store ptr %0, ptr %3, align 8
  store i32 %1, ptr %4, align 4
  call void @llvm.lifetime.start.p0(i64 8, ptr %5) #13
  %12 = load ptr, ptr %3, align 8
  %13 = getelementptr inbounds nuw %struct.VirtIOPCIProxy, ptr %12, i32 0, i32 25
  %14 = call ptr @virtio_bus_get_device(ptr noundef %13)
  store ptr %14, ptr %5, align 8
  call void @llvm.lifetime.start.p0(i64 4, ptr %6) #13
  store i32 0, ptr %6, align 4, !annotation !4
  call void @llvm.lifetime.start.p0(i64 8, ptr %7) #13
  store ptr null, ptr %7, align 8, !annotation !4
  call void @llvm.lifetime.start.p0(i64 4, ptr %8) #13
  store i32 0, ptr %8, align 4, !annotation !4
  call void @llvm.lifetime.start.p0(i64 8, ptr %9) #13
  %15 = load ptr, ptr %5, align 8
  %16 = call ptr @VIRTIO_DEVICE_GET_CLASS(ptr noundef %15)
  store ptr %16, ptr %9, align 8
  call void @llvm.lifetime.start.p0(i64 8, ptr %10) #13
  %17 = load ptr, ptr %3, align 8
  %18 = getelementptr inbounds nuw %struct.VirtIOPCIProxy, ptr %17, i32 0, i32 0
  store ptr %18, ptr %10, align 8
  %19 = load ptr, ptr %3, align 8
  %20 = load i32, ptr %4, align 4
  %21 = call i32 @virtio_pci_get_notifier(ptr noundef %19, i32 noundef %20, ptr noundef %7, ptr noundef %6)
  store i32 %21, ptr %8, align 4
  %22 = load i32, ptr %8, align 4
  %23 = icmp slt i32 %22, 0
  br i1 %23, label %24, label %25

24:                                               ; preds = %2
  store i32 1, ptr %11, align 4
  br label %48

25:                                               ; preds = %2
  %26 = load i32, ptr %6, align 4
  %27 = load ptr, ptr %10, align 8
  %28 = call i32 @msix_nr_vectors_allocated(ptr noundef %27)
  %29 = icmp uge i32 %26, %28
  br i1 %29, label %30, label %31

30:                                               ; preds = %25
  store i32 1, ptr %11, align 4
  br label %48

31:                                               ; preds = %25
  %32 = load ptr, ptr %5, align 8
  %33 = getelementptr inbounds nuw %struct.VirtIODevice, ptr %32, i32 0, i32 28
  %34 = load i8, ptr %33, align 1, !range !7, !noundef !8
  %35 = trunc i8 %34 to i1
  br i1 %35, label %36, label %45

36:                                               ; preds = %31
  %37 = load ptr, ptr %9, align 8
  %38 = getelementptr inbounds nuw %struct.VirtioDeviceClass, ptr %37, i32 0, i32 15
  %39 = load ptr, ptr %38, align 8
  %40 = icmp ne ptr %39, null
  br i1 %40, label %41, label %45

41:                                               ; preds = %36
  %42 = load ptr, ptr %3, align 8
  %43 = load ptr, ptr %7, align 8
  %44 = load i32, ptr %6, align 4
  call void @kvm_virtio_pci_irqfd_release(ptr noundef %42, ptr noundef %43, i32 noundef %44)
  br label %45

45:                                               ; preds = %41, %36, %31
  %46 = load ptr, ptr %3, align 8
  %47 = load i32, ptr %6, align 4
  call void @kvm_virtio_pci_vq_vector_release(ptr noundef %46, i32 noundef %47)
  store i32 0, ptr %11, align 4
  br label %48

48:                                               ; preds = %45, %30, %24
  call void @llvm.lifetime.end.p0(i64 8, ptr %10) #13
  call void @llvm.lifetime.end.p0(i64 8, ptr %9) #13
  call void @llvm.lifetime.end.p0(i64 4, ptr %8) #13
  call void @llvm.lifetime.end.p0(i64 8, ptr %7) #13
  call void @llvm.lifetime.end.p0(i64 4, ptr %6) #13
  call void @llvm.lifetime.end.p0(i64 8, ptr %5) #13
  %49 = load i32, ptr %11, align 4
  switch i32 %49, label %51 [
    i32 0, label %50
    i32 1, label %50
  ]

50:                                               ; preds = %48, %48
  ret void

51:                                               ; preds = %48
  unreachable
}