; Function Attrs: nounwind sspstrong uwtable
define internal fastcc void @kvm_virtio_pci_vector_release_one(ptr noundef %0, i32 noundef %1) unnamed_addr #0 {
  %3 = getelementptr i8, ptr %0, i64 34160
  %.val = load ptr, ptr %3, align 8
  %.not.i = icmp eq ptr %.val, null
  br i1 %.not.i, label %virtio_bus_get_device.exit, label %4

4:                                                ; preds = %2
  %5 = getelementptr inbounds nuw i8, ptr %.val, i64 16
  %6 = load ptr, ptr %5, align 8
  br label %virtio_bus_get_device.exit

virtio_bus_get_device.exit:                       ; preds = %2, %4
  %7 = phi ptr [ %6, %4 ], [ null, %2 ]
  %8 = tail call ptr @object_get_class(ptr noundef %7) #15
  %9 = tail call ptr @object_class_dynamic_cast_assert(ptr noundef %8, ptr noundef nonnull @.str.42, ptr noundef nonnull @.str.43, i32 noundef 88, ptr noundef nonnull @__func__.VIRTIO_DEVICE_GET_CLASS) #15
  %.val.i = load ptr, ptr %3, align 8
  %.not.i.i = icmp eq ptr %.val.i, null
  br i1 %.not.i.i, label %virtio_bus_get_device.exit.i, label %10

10:                                               ; preds = %virtio_bus_get_device.exit
  %11 = getelementptr inbounds nuw i8, ptr %.val.i, i64 16
  %12 = load ptr, ptr %11, align 8
  br label %virtio_bus_get_device.exit.i

virtio_bus_get_device.exit.i:                     ; preds = %10, %virtio_bus_get_device.exit
  %13 = phi ptr [ %12, %10 ], [ null, %virtio_bus_get_device.exit ]
  %14 = getelementptr inbounds nuw i8, ptr %0, i64 34064
  %15 = load ptr, ptr %14, align 16
  %.not.i13 = icmp eq ptr %15, null
  br i1 %.not.i13, label %16, label %20

16:                                               ; preds = %virtio_bus_get_device.exit.i
  %17 = getelementptr inbounds nuw i8, ptr %13, i64 160
  %18 = load i8, ptr %17, align 8
  %19 = and i8 %18, 4
  %.not18.i = icmp eq i8 %19, 0
  br i1 %.not18.i, label %20, label %kvm_virtio_pci_vq_vector_release.exit

20:                                               ; preds = %16, %virtio_bus_get_device.exit.i
  %21 = icmp eq i32 %1, -1
  br i1 %21, label %22, label %26

22:                                               ; preds = %20
  %23 = tail call ptr @virtio_config_get_guest_notifier(ptr noundef %13) #15
  %24 = getelementptr inbounds nuw i8, ptr %13, i64 208
  %25 = load i16, ptr %24, align 8
  br label %virtio_pci_get_notifier.exit

26:                                               ; preds = %20
  %27 = tail call i32 @virtio_queue_get_num(ptr noundef %13, i32 noundef %1) #15
  %.not19.i = icmp eq i32 %27, 0
  br i1 %.not19.i, label %kvm_virtio_pci_vq_vector_release.exit, label %28

28:                                               ; preds = %26
  %29 = tail call zeroext i16 @virtio_queue_vector(ptr noundef %13, i32 noundef %1) #15
  %30 = tail call ptr @virtio_get_queue(ptr noundef %13, i32 noundef %1) #15
  %31 = tail call ptr @virtio_queue_get_guest_notifier(ptr noundef %30) #15
  br label %virtio_pci_get_notifier.exit

virtio_pci_get_notifier.exit:                     ; preds = %28, %22
  %.016.in = phi i16 [ %25, %22 ], [ %29, %28 ]
  %.0 = phi ptr [ %23, %22 ], [ %31, %28 ]
  %.016 = zext i16 %.016.in to i32
  %32 = tail call i32 @msix_nr_vectors_allocated(ptr noundef nonnull %0) #15
  %.not = icmp ugt i32 %32, %.016
  br i1 %.not, label %33, label %kvm_virtio_pci_vq_vector_release.exit

33:                                               ; preds = %virtio_pci_get_notifier.exit
  %34 = getelementptr inbounds nuw i8, ptr %7, i64 457
  %35 = load i8, ptr %34, align 1, !range !7, !noundef !6
  %36 = trunc nuw i8 %35 to i1
  br i1 %36, label %37, label %kvm_virtio_pci_irqfd_release.exit

37:                                               ; preds = %33
  %38 = getelementptr inbounds nuw i8, ptr %9, i64 296
  %39 = load ptr, ptr %38, align 8
  %.not10 = icmp eq ptr %39, null
  br i1 %.not10, label %kvm_virtio_pci_irqfd_release.exit, label %40

40:                                               ; preds = %37
  %.val11 = load ptr, ptr %14, align 16
  %41 = zext i16 %.016.in to i64
  %42 = load ptr, ptr @kvm_state, align 8
  %43 = getelementptr inbounds nuw %struct.VirtIOIRQFD, ptr %.val11, i64 %41, i32 1
  %44 = load i32, ptr %43, align 8
  %45 = tail call i32 @kvm_irqchip_remove_irqfd_notifier_gsi(ptr noundef %42, ptr noundef %.0, i32 noundef %44) #15
  %46 = icmp eq i32 %45, 0
  br i1 %46, label %kvm_virtio_pci_irqfd_release.exit, label %47

47:                                               ; preds = %40
  tail call void @__assert_fail(ptr noundef nonnull @.str.44, ptr noundef nonnull @.str.5, i32 noundef 865, ptr noundef nonnull @__PRETTY_FUNCTION__.kvm_virtio_pci_irqfd_release) #16
  unreachable

kvm_virtio_pci_irqfd_release.exit:                ; preds = %40, %37, %33
  %.val12 = load ptr, ptr %14, align 16
  %48 = zext i16 %.016.in to i64
  %49 = getelementptr inbounds nuw %struct.VirtIOIRQFD, ptr %.val12, i64 %48
  %50 = getelementptr inbounds nuw i8, ptr %49, i64 20
  %51 = load i32, ptr %50, align 4
  %52 = add i32 %51, -1
  store i32 %52, ptr %50, align 4
  %53 = icmp eq i32 %52, 0
  br i1 %53, label %54, label %kvm_virtio_pci_vq_vector_release.exit

54:                                               ; preds = %kvm_virtio_pci_irqfd_release.exit
  %55 = load ptr, ptr @kvm_state, align 8
  %56 = getelementptr inbounds nuw i8, ptr %49, i64 16
  %57 = load i32, ptr %56, align 8
  tail call void @kvm_irqchip_release_virq(ptr noundef %55, i32 noundef %57) #15
  br label %kvm_virtio_pci_vq_vector_release.exit

kvm_virtio_pci_vq_vector_release.exit:            ; preds = %26, %16, %54, %kvm_virtio_pci_irqfd_release.exit, %virtio_pci_get_notifier.exit
  ret void
}